target datalayout = "e-m:e-p270:32:32-p271:32:32-p272:64:64-i64:64-i128:128-f80:128-n8:16:32:64-S128"
target triple = "x86_64-pc-linux-gnu"

%struct.AVRational = type { i32, i32 }
%struct.AVBSFContext = type { ptr, ptr, ptr, ptr, ptr, %struct.AVRational, %struct.AVRational }
%struct.H264MetadataContext = type { %struct.CBSBSFContext, i32, i32, %struct.H264RawAUD, %struct.AVRational, i32, i32, i32, i32, i32, i32, i32, %struct.AVRational, i32, i32, i32, i32, i32, i32, ptr, %struct.SEIRawUserDataUnregistered, i32, i32, double, i32, %struct.H264RawSEIDisplayOrientation, i32 }
%struct.CBSBSFContext = type { ptr, ptr, ptr, ptr, %struct.CodedBitstreamFragment }
%struct.CodedBitstreamFragment = type { ptr, i64, i64, ptr, i32, i32, ptr }
%struct.H264RawAUD = type { %struct.H264RawNALUnitHeader, i8 }
%struct.H264RawNALUnitHeader = type { i8, i8, i8, i8 }
%struct.SEIRawUserDataUnregistered = type { [16 x i8], ptr, i64 }
%struct.H264RawSEIDisplayOrientation = type { i8, i8, i8, i16, i16, i8 }

@.str.78 = private unnamed_addr constant [43 x i8] c"Invalid user data: must be \22UUID+string\22.\0A\00", align 1
@h264_metadata_type = internal constant { i32, [4 x i8], ptr, ptr, ptr } { i32 27, [4 x i8] zeroinitializer, ptr @.str.79, ptr @.str.80, ptr @h264_metadata_update_fragment }, align 8

; Function Attrs: inlinehint nounwind willreturn memory(none) uwtable
define internal i32 @av_isdigit(i32 noundef %0) #3 {
  %2 = alloca i32, align 4
  store i32 %0, ptr %2, align 4, !tbaa !36
  %3 = load i32, ptr %2, align 4, !tbaa !36
  %4 = icmp sge i32 %3, 48
  br i1 %4, label %5, label %8

5:                                                ; preds = %1
  %6 = load i32, ptr %2, align 4, !tbaa !36
  %7 = icmp sle i32 %6, 57
  br label %8

8:                                                ; preds = %5, %1
  %9 = phi i1 [ false, %1 ], [ %7, %5 ]
  %10 = zext i1 %9 to i32
  ret i32 %10
}

; Function Attrs: inlinehint nounwind willreturn memory(none) uwtable
define internal i32 @av_tolower(i32 noundef %0) #3 {
  %2 = alloca i32, align 4
  store i32 %0, ptr %2, align 4, !tbaa !36
  %3 = load i32, ptr %2, align 4, !tbaa !36
  %4 = icmp sge i32 %3, 65
  br i1 %4, label %5, label %11

5:                                                ; preds = %1
  %6 = load i32, ptr %2, align 4, !tbaa !36
  %7 = icmp sle i32 %6, 90
  br i1 %7, label %8, label %11

8:                                                ; preds = %5
  %9 = load i32, ptr %2, align 4, !tbaa !36
  %10 = xor i32 %9, 32
  store i32 %10, ptr %2, align 4, !tbaa !36
  br label %11

11:                                               ; preds = %8, %5, %1
  %12 = load i32, ptr %2, align 4, !tbaa !36
  ret i32 %12
}

; Function Attrs: inlinehint nounwind willreturn memory(none) uwtable
define internal i32 @av_isxdigit(i32 noundef %0) #3 {
  %2 = alloca i32, align 4
  store i32 %0, ptr %2, align 4, !tbaa !36
  %3 = load i32, ptr %2, align 4, !tbaa !36
  %4 = call i32 @av_tolower(i32 noundef %3) #9
  store i32 %4, ptr %2, align 4, !tbaa !36
  %5 = load i32, ptr %2, align 4, !tbaa !36
  %6 = call i32 @av_isdigit(i32 noundef %5) #9
  %7 = icmp ne i32 %6, 0
  br i1 %7, label %16, label %8

8:                                                ; preds = %1
  %9 = load i32, ptr %2, align 4, !tbaa !36
  %10 = icmp sge i32 %9, 97
  br i1 %10, label %11, label %14

11:                                               ; preds = %8
  %12 = load i32, ptr %2, align 4, !tbaa !36
  %13 = icmp sle i32 %12, 102
  br label %14

14:                                               ; preds = %11, %8
  %15 = phi i1 [ false, %8 ], [ %13, %11 ]
  br label %16

16:                                               ; preds = %14, %1
  %17 = phi i1 [ true, %1 ], [ %15, %14 ]
  %18 = zext i1 %17 to i32
  ret i32 %18
}

; Function Attrs: nounwind uwtable
define internal i32 @h264_metadata_init(ptr noundef %0) #0 {
  %2 = alloca i32, align 4
  %3 = alloca ptr, align 8
  %4 = alloca ptr, align 8
  %5 = alloca ptr, align 8
  %6 = alloca i32, align 4
  %7 = alloca i32, align 4
  %8 = alloca i32, align 4
  %9 = alloca i32, align 4
  %10 = alloca i32, align 4
  store ptr %0, ptr %3, align 8, !tbaa !4
  call void @llvm.lifetime.start.p0(i64 8, ptr %4) #8
  %11 = load ptr, ptr %3, align 8, !tbaa !4
  %12 = getelementptr inbounds nuw %struct.AVBSFContext, ptr %11, i32 0, i32 2
  %13 = load ptr, ptr %12, align 8, !tbaa !9
  store ptr %13, ptr %4, align 8, !tbaa !16
  %14 = load ptr, ptr %4, align 8, !tbaa !16
  %15 = getelementptr inbounds nuw %struct.H264MetadataContext, ptr %14, i32 0, i32 19
  %16 = load ptr, ptr %15, align 8, !tbaa !18
  %17 = icmp ne ptr %16, null
  br i1 %17, label %18, label %142

18:                                               ; preds = %1
  call void @llvm.lifetime.start.p0(i64 8, ptr %5) #8
  %19 = load ptr, ptr %4, align 8, !tbaa !16
  %20 = getelementptr inbounds nuw %struct.H264MetadataContext, ptr %19, i32 0, i32 20
  store ptr %20, ptr %5, align 8, !tbaa !34
  call void @llvm.lifetime.start.p0(i64 4, ptr %6) #8
  call void @llvm.lifetime.start.p0(i64 4, ptr %7) #8
  store i32 0, ptr %7, align 4, !tbaa !36
  store i32 0, ptr %6, align 4, !tbaa !36
  br label %21

21:                                               ; preds = %103, %18
  %22 = load i32, ptr %7, align 4, !tbaa !36
  %23 = icmp slt i32 %22, 32
  br i1 %23, label %24, label %37

24:                                               ; preds = %21
  %25 = load i32, ptr %6, align 4, !tbaa !36
  %26 = icmp slt i32 %25, 64
  br i1 %26, label %27, label %37

27:                                               ; preds = %24
  %28 = load ptr, ptr %4, align 8, !tbaa !16
  %29 = getelementptr inbounds nuw %struct.H264MetadataContext, ptr %28, i32 0, i32 19
  %30 = load ptr, ptr %29, align 8, !tbaa !18
  %31 = load i32, ptr %6, align 4, !tbaa !36
  %32 = sext i32 %31 to i64
  %33 = getelementptr inbounds i8, ptr %30, i64 %32
  %34 = load i8, ptr %33, align 1, !tbaa !37
  %35 = sext i8 %34 to i32
  %36 = icmp ne i32 %35, 0
  br label %37

37:                                               ; preds = %27, %24, %21
  %38 = phi i1 [ false, %24 ], [ false, %21 ], [ %36, %27 ]
  br i1 %38, label %39, label %106

39:                                               ; preds = %37
  call void @llvm.lifetime.start.p0(i64 4, ptr %8) #8
  call void @llvm.lifetime.start.p0(i64 4, ptr %9) #8
  %40 = load ptr, ptr %4, align 8, !tbaa !16
  %41 = getelementptr inbounds nuw %struct.H264MetadataContext, ptr %40, i32 0, i32 19
  %42 = load ptr, ptr %41, align 8, !tbaa !18
  %43 = load i32, ptr %6, align 4, !tbaa !36
  %44 = sext i32 %43 to i64
  %45 = getelementptr inbounds i8, ptr %42, i64 %44
  %46 = load i8, ptr %45, align 1, !tbaa !37
  %47 = sext i8 %46 to i32
  store i32 %47, ptr %8, align 4, !tbaa !36
  %48 = load i32, ptr %8, align 4, !tbaa !36
  %49 = icmp eq i32 %48, 45
  br i1 %49, label %50, label %51

50:                                               ; preds = %39
  store i32 4, ptr %10, align 4
  br label %100

51:                                               ; preds = %39
  %52 = load i32, ptr %8, align 4, !tbaa !36
  %53 = call i32 @av_isxdigit(i32 noundef %52) #9
  %54 = icmp ne i32 %53, 0
  br i1 %54, label %55, label %69

55:                                               ; preds = %51
  %56 = load i32, ptr %8, align 4, !tbaa !36
  %57 = call i32 @av_tolower(i32 noundef %56) #9
  store i32 %57, ptr %8, align 4, !tbaa !36
  %58 = load i32, ptr %8, align 4, !tbaa !36
  %59 = icmp sle i32 %58, 57
  br i1 %59, label %60, label %63

60:                                               ; preds = %55
  %61 = load i32, ptr %8, align 4, !tbaa !36
  %62 = sub nsw i32 %61, 48
  br label %67

63:                                               ; preds = %55
  %64 = load i32, ptr %8, align 4, !tbaa !36
  %65 = sub nsw i32 %64, 97
  %66 = add nsw i32 %65, 10
  br label %67

67:                                               ; preds = %63, %60
  %68 = phi i32 [ %62, %60 ], [ %66, %63 ]
  store i32 %68, ptr %9, align 4, !tbaa !36
  br label %70

69:                                               ; preds = %51
  store i32 2, ptr %10, align 4
  br label %100

70:                                               ; preds = %67
  br label %71

71:                                               ; preds = %70
  %72 = load i32, ptr %7, align 4, !tbaa !36
  %73 = and i32 %72, 1
  %74 = icmp ne i32 %73, 0
  br i1 %74, label %75, label %87

75:                                               ; preds = %71
  %76 = load i32, ptr %9, align 4, !tbaa !36
  %77 = load ptr, ptr %5, align 8, !tbaa !34
  %78 = getelementptr inbounds nuw %struct.SEIRawUserDataUnregistered, ptr %77, i32 0, i32 0
  %79 = load i32, ptr %7, align 4, !tbaa !36
  %80 = sdiv i32 %79, 2
  %81 = sext i32 %80 to i64
  %82 = getelementptr inbounds [16 x i8], ptr %78, i64 0, i64 %81
  %83 = load i8, ptr %82, align 1, !tbaa !37
  %84 = zext i8 %83 to i32
  %85 = or i32 %84, %76
  %86 = trunc i32 %85 to i8
  store i8 %86, ptr %82, align 1, !tbaa !37
  br label %97

87:                                               ; preds = %71
  %88 = load i32, ptr %9, align 4, !tbaa !36
  %89 = shl i32 %88, 4
  %90 = trunc i32 %89 to i8
  %91 = load ptr, ptr %5, align 8, !tbaa !34
  %92 = getelementptr inbounds nuw %struct.SEIRawUserDataUnregistered, ptr %91, i32 0, i32 0
  %93 = load i32, ptr %7, align 4, !tbaa !36
  %94 = sdiv i32 %93, 2
  %95 = sext i32 %94 to i64
  %96 = getelementptr inbounds [16 x i8], ptr %92, i64 0, i64 %95
  store i8 %90, ptr %96, align 1, !tbaa !37
  br label %97

97:                                               ; preds = %87, %75
  %98 = load i32, ptr %7, align 4, !tbaa !36
  %99 = add nsw i32 %98, 1
  store i32 %99, ptr %7, align 4, !tbaa !36
  store i32 0, ptr %10, align 4
  br label %100

100:                                              ; preds = %97, %69, %50
  call void @llvm.lifetime.end.p0(i64 4, ptr %9) #8
  call void @llvm.lifetime.end.p0(i64 4, ptr %8) #8
  %101 = load i32, ptr %10, align 4
  switch i32 %101, label %147 [
    i32 0, label %102
    i32 4, label %103
    i32 2, label %106
  ]

102:                                              ; preds = %100
  br label %103

103:                                              ; preds = %102, %100
  %104 = load i32, ptr %6, align 4, !tbaa !36
  %105 = add nsw i32 %104, 1
  store i32 %105, ptr %6, align 4, !tbaa !36
  br label %21, !llvm.loop !38

106:                                              ; preds = %100, %37
  %107 = load i32, ptr %7, align 4, !tbaa !36
  %108 = icmp eq i32 %107, 32
  br i1 %108, label %109, label %136

109:                                              ; preds = %106
  %110 = load ptr, ptr %4, align 8, !tbaa !16
  %111 = getelementptr inbounds nuw %struct.H264MetadataContext, ptr %110, i32 0, i32 19
  %112 = load ptr, ptr %111, align 8, !tbaa !18
  %113 = load i32, ptr %6, align 4, !tbaa !36
  %114 = sext i32 %113 to i64
  %115 = getelementptr inbounds i8, ptr %112, i64 %114
  %116 = load i8, ptr %115, align 1, !tbaa !37
  %117 = sext i8 %116 to i32
  %118 = icmp eq i32 %117, 43
  br i1 %118, label %119, label %136

119:                                              ; preds = %109
  %120 = load ptr, ptr %4, align 8, !tbaa !16
  %121 = getelementptr inbounds nuw %struct.H264MetadataContext, ptr %120, i32 0, i32 19
  %122 = load ptr, ptr %121, align 8, !tbaa !18
  %123 = load i32, ptr %6, align 4, !tbaa !36
  %124 = sext i32 %123 to i64
  %125 = getelementptr inbounds i8, ptr %122, i64 %124
  %126 = getelementptr inbounds i8, ptr %125, i64 1
  %127 = load ptr, ptr %5, align 8, !tbaa !34
  %128 = getelementptr inbounds nuw %struct.SEIRawUserDataUnregistered, ptr %127, i32 0, i32 1
  store ptr %126, ptr %128, align 8, !tbaa !40
  %129 = load ptr, ptr %5, align 8, !tbaa !34
  %130 = getelementptr inbounds nuw %struct.SEIRawUserDataUnregistered, ptr %129, i32 0, i32 1
  %131 = load ptr, ptr %130, align 8, !tbaa !40
  %132 = call i64 @strlen(ptr noundef %131) #10
  %133 = add i64 %132, 1
  %134 = load ptr, ptr %5, align 8, !tbaa !34
  %135 = getelementptr inbounds nuw %struct.SEIRawUserDataUnregistered, ptr %134, i32 0, i32 2
  store i64 %133, ptr %135, align 8, !tbaa !41
  br label %138

136:                                              ; preds = %109, %106
  %137 = load ptr, ptr %3, align 8, !tbaa !4
  call void (ptr, i32, ptr, ...) @av_log(ptr noundef %137, i32 noundef 16, ptr noundef @.str.78)
  store i32 -22, ptr %2, align 4
  store i32 1, ptr %10, align 4
  br label %139

138:                                              ; preds = %119
  store i32 0, ptr %10, align 4
  br label %139

139:                                              ; preds = %138, %136
  call void @llvm.lifetime.end.p0(i64 4, ptr %7) #8
  call void @llvm.lifetime.end.p0(i64 4, ptr %6) #8
  call void @llvm.lifetime.end.p0(i64 8, ptr %5) #8
  %140 = load i32, ptr %10, align 4
  switch i32 %140, label %145 [
    i32 0, label %141
  ]

141:                                              ; preds = %139
  br label %142

142:                                              ; preds = %141, %1
  %143 = load ptr, ptr %3, align 8, !tbaa !4
  %144 = call i32 @ff_cbs_bsf_generic_init(ptr noundef %143, ptr noundef @h264_metadata_type)
  store i32 %144, ptr %2, align 4
  store i32 1, ptr %10, align 4
  br label %145

145:                                              ; preds = %142, %139
  call void @llvm.lifetime.end.p0(i64 8, ptr %4) #8
  %146 = load i32, ptr %2, align 4
  ret i32 %146

147:                                              ; preds = %100
  unreachable
}