; Function Attrs: nounwind uwtable
define internal i32 @h264_metadata_init(ptr noundef %0) #0 {
  %2 = getelementptr inbounds nuw i8, ptr %0, i64 16
  %3 = load ptr, ptr %2, align 8, !tbaa !4
  %4 = getelementptr inbounds nuw i8, ptr %3, i64 168
  %5 = load ptr, ptr %4, align 8, !tbaa !14
  %.not = icmp eq ptr %5, null
  br i1 %.not, label %54, label %6

6:                                                ; preds = %1
  %7 = getelementptr inbounds nuw i8, ptr %3, i64 176
  br label %8

8:                                                ; preds = %6, %39
  %indvars.iv = phi i64 [ 0, %6 ], [ %indvars.iv.next, %39 ]
  %.03961 = phi i32 [ 0, %6 ], [ %.2.ph, %39 ]
  %9 = load ptr, ptr %4, align 8, !tbaa !14
  %10 = getelementptr inbounds nuw i8, ptr %9, i64 %indvars.iv
  %11 = load i8, ptr %10, align 1, !tbaa !30
  switch i8 %11, label %12 [
    i8 0, label %.critedge.thread
    i8 45, label %39
  ]

12:                                               ; preds = %8
  %13 = sext i8 %11 to i32
  %14 = add nsw i32 %13, -65
  %or.cond.i.i = icmp ult i32 %14, 26
  %15 = or disjoint i32 %13, 32
  %spec.select.i.i = select i1 %or.cond.i.i, i32 %15, i32 %13
  %16 = add nsw i32 %spec.select.i.i, -48
  %17 = icmp ugt i32 %16, 9
  %18 = add nsw i32 %spec.select.i.i, -103
  %19 = icmp ult i32 %18, -6
  %narrow.i.not = select i1 %17, i1 %19, i1 false
  br i1 %narrow.i.not, label %.critedge.thread, label %20

20:                                               ; preds = %12
  %21 = icmp samesign ult i32 %spec.select.i.i, 58
  %22 = add nsw i32 %spec.select.i.i, -87
  %23 = select i1 %21, i32 %16, i32 %22
  %24 = and i32 %.03961, 1
  %.not47 = icmp eq i32 %24, 0
  br i1 %.not47, label %32, label %25

25:                                               ; preds = %20
  %26 = sdiv i32 %.03961, 2
  %27 = sext i32 %26 to i64
  %28 = getelementptr inbounds [16 x i8], ptr %7, i64 0, i64 %27
  %29 = load i8, ptr %28, align 1, !tbaa !30
  %30 = trunc nsw i32 %23 to i8
  %31 = or i8 %29, %30
  store i8 %31, ptr %28, align 1, !tbaa !30
  br label %37

32:                                               ; preds = %20
  %.tr = trunc nsw i32 %23 to i8
  %33 = shl i8 %.tr, 4
  %34 = ashr exact i32 %.03961, 1
  %35 = sext i32 %34 to i64
  %36 = getelementptr inbounds [16 x i8], ptr %7, i64 0, i64 %35
  store i8 %33, ptr %36, align 1, !tbaa !30
  br label %37

37:                                               ; preds = %32, %25
  %38 = add nsw i32 %.03961, 1
  br label %39

39:                                               ; preds = %37, %8
  %.2.ph = phi i32 [ %.03961, %8 ], [ %38, %37 ]
  %indvars.iv.next = add nuw nsw i64 %indvars.iv, 1
  %40 = icmp slt i32 %.2.ph, 32
  %41 = icmp samesign ult i64 %indvars.iv, 63
  %or.cond = select i1 %40, i1 %41, i1 false
  br i1 %or.cond, label %8, label %.critedge, !llvm.loop !31

.critedge:                                        ; preds = %39
  %42 = icmp eq i32 %.2.ph, 32
  br i1 %42, label %43, label %.critedge.thread

43:                                               ; preds = %.critedge
  %44 = load ptr, ptr %4, align 8, !tbaa !14
  %45 = and i64 %indvars.iv.next, 4294967295
  %46 = getelementptr inbounds nuw i8, ptr %44, i64 %45
  %47 = load i8, ptr %46, align 1, !tbaa !30
  %48 = icmp eq i8 %47, 43
  br i1 %48, label %.critedge49, label %.critedge.thread

.critedge49:                                      ; preds = %43
  %49 = getelementptr inbounds nuw i8, ptr %46, i64 1
  %50 = getelementptr inbounds nuw i8, ptr %3, i64 192
  store ptr %49, ptr %50, align 8, !tbaa !33
  %51 = tail call i64 @strlen(ptr noundef nonnull dereferenceable(1) %49) #8
  %52 = add i64 %51, 1
  %53 = getelementptr inbounds nuw i8, ptr %3, i64 200
  store i64 %52, ptr %53, align 8, !tbaa !34
  br label %54

.critedge.thread:                                 ; preds = %12, %8, %43, %.critedge
  tail call void (ptr, i32, ptr, ...) @av_log(ptr noundef %0, i32 noundef 16, ptr noundef nonnull @.str.78) #9
  br label %56

54:                                               ; preds = %.critedge49, %1
  %55 = tail call i32 @ff_cbs_bsf_generic_init(ptr noundef %0, ptr noundef nonnull @h264_metadata_type) #9
  br label %56

56:                                               ; preds = %.critedge.thread, %54
  %.138 = phi i32 [ %55, %54 ], [ -22, %.critedge.thread ]
  ret i32 %.138
}